#include <math.h>
#include <stdio.h>
#include <stdlib.h>
#include <string.h>

int main()
{
    int n,flag,bigflag=0;
	long int len,i,j;
	char s[100000];
	scanf("%d",&n);
	while(n--)
	{
		bigflag=0;
		scanf("%s",s);
		len=strlen(s);
		for(i=0;i<len-1;i++)
		{ 
			flag=0;
			for(j=0;j!=i;j++)
			if(s[i]==s[j])
			   {
				   flag=1;
			   }//over our search
			for(j=len-1;j!=i;j--)
			if(s[i]==s[j])
			   {
				   flag=1;
			   }//over our search

            if(flag==0) 
			{
				printf("%c\n",s[i]);
				bigflag=1;
				break;
			}
		}
		if(bigflag==0)
		{
			printf("no");
			printf("\n");
		}
	}
	return 0;

}